#include <math.h>
#include <stdio.h>
#include <stdlib.h>
#include <string.h>

int main(){
	int n,i,k;
	char s1[200],s2[200];
	scanf("%s",s1);
	scanf("%s",s2);
	if(strlen(s1)!=strlen(s2)){
		printf("NO");
		return 0;
	}
	for(i=0;s1[i];i++){
		n=0;
		for(k=0;s2[k];k++){
			if(s2[k]==s1[i]){
				s2[k]=' ';
				n=1;
				break;
			}
		}
		if(n==0){
			printf("NO");
			return 0;
		}
	}
	printf("YES");
	//scanf("%d",&n);
	return 0;
}